target datalayout = "e-m:e-p270:32:32-p271:32:32-p272:64:64-i64:64-i128:128-f80:128-n8:16:32:64-S128"
target triple = "x86_64-pc-linux-gnu"

@hf_afs_fs_fid_volume = internal global i32 0, align 4
@hf_afs_fs_fid_vnode = internal global i32 0, align 4
@hf_afs_fs_fid_uniqifier = internal global i32 0, align 4
@ett_afs_fid = internal global i32 0, align 4
@.str.950 = private unnamed_addr constant [12 x i8] c"FileID (%s)\00", align 1

; Function Attrs: null_pointer_is_valid sspstrong uwtable
define internal void @OUT_FS_AFSFid(ptr noundef %0, ptr noundef %1) #0 {
  %3 = alloca ptr, align 8
  %4 = alloca ptr, align 8
  store ptr %0, ptr %3, align 8
  store ptr %1, ptr %4, align 8
  %5 = load ptr, ptr %3, align 8
  %6 = load i32, ptr @ett_afs_fid, align 4
  %7 = load ptr, ptr %4, align 8
  %8 = call ptr (ptr, i32, i32, ptr, ...) @ptvcursor_add_text_with_subtree(ptr noundef %5, i32 noundef -1, i32 noundef %6, ptr noundef @.str.950, ptr noundef %7)
  %9 = load ptr, ptr %3, align 8
  %10 = load i32, ptr @hf_afs_fs_fid_volume, align 4
  %11 = call ptr @ptvcursor_add(ptr noundef %9, i32 noundef %10, i32 noundef 4, i32 noundef 0)
  %12 = load ptr, ptr %3, align 8
  %13 = load i32, ptr @hf_afs_fs_fid_vnode, align 4
  %14 = call ptr @ptvcursor_add(ptr noundef %12, i32 noundef %13, i32 noundef 4, i32 noundef 0)
  %15 = load ptr, ptr %3, align 8
  %16 = load i32, ptr @hf_afs_fs_fid_uniqifier, align 4
  %17 = call ptr @ptvcursor_add(ptr noundef %15, i32 noundef %16, i32 noundef 4, i32 noundef 0)
  %18 = load ptr, ptr %3, align 8
  call void @ptvcursor_pop_subtree(ptr noundef %18)
  ret void
}