; Function Attrs: null_pointer_is_valid sspstrong uwtable
define internal fastcc void @OUT_FS_AFSFid(ptr noundef %0, ptr noundef %1) unnamed_addr #0 {
  %3 = load i32, ptr @ett_afs_fid, align 4
  %4 = tail call ptr (ptr, i32, i32, ptr, ...) @ptvcursor_add_text_with_subtree(ptr noundef %0, i32 noundef -1, i32 noundef %3, ptr noundef nonnull @.str.950, ptr noundef %1)
  %5 = load i32, ptr @hf_afs_fs_fid_volume, align 4
  %6 = tail call ptr @ptvcursor_add(ptr noundef %0, i32 noundef %5, i32 noundef 4, i32 noundef 0)
  %7 = load i32, ptr @hf_afs_fs_fid_vnode, align 4
  %8 = tail call ptr @ptvcursor_add(ptr noundef %0, i32 noundef %7, i32 noundef 4, i32 noundef 0)
  %9 = load i32, ptr @hf_afs_fs_fid_uniqifier, align 4
  %10 = tail call ptr @ptvcursor_add(ptr noundef %0, i32 noundef %9, i32 noundef 4, i32 noundef 0)
  tail call void @ptvcursor_pop_subtree(ptr noundef %0)
  ret void
}